target datalayout = "e-m:e-p270:32:32-p271:32:32-p272:64:64-i64:64-i128:128-f80:128-n8:16:32:64-S128"
target triple = "x86_64-pc-linux-gnu"

%"class.std::shared_ptr.0" = type { %"class.std::__shared_ptr.1" }
%"class.std::__shared_ptr.1" = type { ptr, %"class.std::__shared_count" }
%"class.std::__shared_count" = type { ptr }
%struct.gmx_ana_selcollection_t = type { %"class.gmx::PositionCalculationCollection", %"class.std::shared_ptr.0", %"class.std::vector.35", i32, ptr, ptr, %struct.gmx_ana_index_t, ptr, %"class.std::unique_ptr.40", %"class.std::unique_ptr.48" }
%"class.gmx::PositionCalculationCollection" = type { %"class.std::unique_ptr.27" }
%"class.std::unique_ptr.27" = type { %"struct.std::__uniq_ptr_data.28" }
%"struct.std::__uniq_ptr_data.28" = type { %"class.std::__uniq_ptr_impl.29" }
%"class.std::__uniq_ptr_impl.29" = type { %"class.std::tuple.30" }
%"class.std::tuple.30" = type { %"struct.std::_Tuple_impl.31" }
%"struct.std::_Tuple_impl.31" = type { %"struct.std::_Head_base.34" }
%"struct.std::_Head_base.34" = type { ptr }
%"class.std::vector.35" = type { %"struct.std::_Vector_base.36" }
%"struct.std::_Vector_base.36" = type { %"struct.std::_Vector_base<std::unique_ptr<gmx::internal::SelectionData>, std::allocator<std::unique_ptr<gmx::internal::SelectionData>>>::_Vector_impl" }
%"struct.std::_Vector_base<std::unique_ptr<gmx::internal::SelectionData>, std::allocator<std::unique_ptr<gmx::internal::SelectionData>>>::_Vector_impl" = type { %"struct.std::_Vector_base<std::unique_ptr<gmx::internal::SelectionData>, std::allocator<std::unique_ptr<gmx::internal::SelectionData>>>::_Vector_impl_data" }
%"struct.std::_Vector_base<std::unique_ptr<gmx::internal::SelectionData>, std::allocator<std::unique_ptr<gmx::internal::SelectionData>>>::_Vector_impl_data" = type { ptr, ptr, ptr }
%struct.gmx_ana_index_t = type { i32, ptr, i32 }
%"class.std::unique_ptr.40" = type { %"struct.std::__uniq_ptr_data.41" }
%"struct.std::__uniq_ptr_data.41" = type { %"class.std::__uniq_ptr_impl.42" }
%"class.std::__uniq_ptr_impl.42" = type { %"class.std::tuple.43" }
%"class.std::tuple.43" = type { %"struct.std::_Tuple_impl.44" }
%"struct.std::_Tuple_impl.44" = type { %"struct.std::_Head_base.47" }
%"struct.std::_Head_base.47" = type { ptr }
%"class.std::unique_ptr.48" = type { %"struct.std::__uniq_ptr_data.49" }
%"struct.std::__uniq_ptr_data.49" = type { %"class.std::__uniq_ptr_impl.50" }
%"class.std::__uniq_ptr_impl.50" = type { %"class.std::tuple.51" }
%"class.std::tuple.51" = type { %"struct.std::_Tuple_impl.52" }
%"struct.std::_Tuple_impl.52" = type { %"struct.std::_Head_base.55" }
%"struct.std::_Head_base.55" = type { ptr }

; Function Attrs: mustprogress nounwind uwtable
define linkonce_odr noundef i64 @_ZNKSt6vectorISt10unique_ptrIN3gmx8internal13SelectionDataESt14default_deleteIS3_EESaIS6_EE4sizeEv(ptr noundef nonnull align 8 dereferenceable(24) %0) #4 comdat align 2 {
  %2 = alloca ptr, align 8
  store ptr %0, ptr %2, align 8, !tbaa !396
  %3 = load ptr, ptr %2, align 8
  %4 = getelementptr inbounds nuw %"struct.std::_Vector_base.36", ptr %3, i32 0, i32 0
  %5 = getelementptr inbounds nuw %"struct.std::_Vector_base<std::unique_ptr<gmx::internal::SelectionData>, std::allocator<std::unique_ptr<gmx::internal::SelectionData>>>::_Vector_impl_data", ptr %4, i32 0, i32 1
  %6 = load ptr, ptr %5, align 8, !tbaa !416
  %7 = getelementptr inbounds nuw %"struct.std::_Vector_base.36", ptr %3, i32 0, i32 0
  %8 = getelementptr inbounds nuw %"struct.std::_Vector_base<std::unique_ptr<gmx::internal::SelectionData>, std::allocator<std::unique_ptr<gmx::internal::SelectionData>>>::_Vector_impl_data", ptr %7, i32 0, i32 0
  %9 = load ptr, ptr %8, align 8, !tbaa !420
  %10 = ptrtoint ptr %6 to i64
  %11 = ptrtoint ptr %9 to i64
  %12 = sub i64 %10, %11
  %13 = sdiv exact i64 %12, 8
  ret i64 %13
}

; Function Attrs: mustprogress nounwind uwtable
define linkonce_odr noundef i64 @_ZN3gmx5ssizeISt6vectorISt10unique_ptrINS_8internal13SelectionDataESt14default_deleteIS4_EESaIS7_EEEElRKT_(ptr noundef nonnull align 8 dereferenceable(24) %0) #4 comdat {
  %2 = alloca ptr, align 8
  store ptr %0, ptr %2, align 8, !tbaa !396
  %3 = load ptr, ptr %2, align 8, !tbaa !396
  %4 = call noundef i64 @_ZNKSt6vectorISt10unique_ptrIN3gmx8internal13SelectionDataESt14default_deleteIS3_EESaIS6_EE4sizeEv(ptr noundef nonnull align 8 dereferenceable(24) %3) #20
  ret i64 %4
}

; Function Attrs: mustprogress uwtable
define noundef zeroext i1 @_Z29_gmx_sel_parser_should_finishPv(ptr noundef %0) #0 {
  %2 = alloca ptr, align 8
  %3 = alloca ptr, align 8
  store ptr %0, ptr %2, align 8, !tbaa !4
  call void @llvm.lifetime.start.p0(i64 8, ptr %3) #20
  %4 = load ptr, ptr %2, align 8, !tbaa !4
  %5 = call noundef ptr @_Z28_gmx_sel_lexer_selcollectionPv(ptr noundef %4)
  store ptr %5, ptr %3, align 8, !tbaa !219
  %6 = load ptr, ptr %3, align 8, !tbaa !219
  %7 = getelementptr inbounds nuw %struct.gmx_ana_selcollection_t, ptr %6, i32 0, i32 2
  %8 = call noundef i64 @_ZN3gmx5ssizeISt6vectorISt10unique_ptrINS_8internal13SelectionDataESt14default_deleteIS4_EESaIS7_EEEElRKT_(ptr noundef nonnull align 8 dereferenceable(24) %7)
  %9 = load ptr, ptr %2, align 8, !tbaa !4
  %10 = call noundef i32 @_Z27_gmx_sel_lexer_exp_selcountPv(ptr noundef %9)
  %11 = sext i32 %10 to i64
  %12 = icmp eq i64 %8, %11
  call void @llvm.lifetime.end.p0(i64 8, ptr %3) #20
  ret i1 %12
}