; Function Attrs: mustprogress uwtable
define noundef zeroext i1 @_Z29_gmx_sel_parser_should_finishPv(ptr noundef %0) local_unnamed_addr #0 {
  %2 = tail call noundef ptr @_Z28_gmx_sel_lexer_selcollectionPv(ptr noundef %0)
  %3 = getelementptr inbounds nuw i8, ptr %2, i64 24
  %4 = getelementptr inbounds nuw i8, ptr %2, i64 32
  %5 = load ptr, ptr %4, align 8, !tbaa !179
  %6 = load ptr, ptr %3, align 8, !tbaa !181
  %7 = ptrtoint ptr %5 to i64
  %8 = ptrtoint ptr %6 to i64
  %9 = sub i64 %7, %8
  %10 = ashr exact i64 %9, 3
  %11 = tail call noundef i32 @_Z27_gmx_sel_lexer_exp_selcountPv(ptr noundef %0)
  %12 = sext i32 %11 to i64
  %13 = icmp eq i64 %10, %12
  ret i1 %13
}